; Function Attrs: nounwind uwtable
define void @Pla_ManHashCubes(ptr noundef captures(none) initializes((60, 64)) %0, ptr noundef captures(none) %1) local_unnamed_addr #0 {
  %3 = getelementptr inbounds nuw i8, ptr %0, i64 56
  %4 = getelementptr inbounds nuw i8, ptr %0, i64 60
  store i32 0, ptr %4, align 4, !tbaa !3
  %5 = getelementptr i8, ptr %0, i64 44
  %.val = load i32, ptr %5, align 4, !tbaa !3
  %6 = load i32, ptr %3, align 8, !tbaa !10
  %.not.i = icmp slt i32 %6, %.val
  br i1 %.not.i, label %7, label %Vec_IntGrow.exit

7:                                                ; preds = %2
  %8 = getelementptr inbounds nuw i8, ptr %0, i64 64
  %9 = load ptr, ptr %8, align 8, !tbaa !11
  %.not9.i = icmp eq ptr %9, null
  %10 = sext i32 %.val to i64
  %11 = shl nsw i64 %10, 2
  br i1 %.not9.i, label %14, label %12

12:                                               ; preds = %7
  %13 = tail call ptr @realloc(ptr noundef nonnull %9, i64 noundef %11) #16
  br label %16

14:                                               ; preds = %7
  %15 = tail call noalias ptr @malloc(i64 noundef %11) #17
  br label %16

16:                                               ; preds = %14, %12
  %17 = phi ptr [ %13, %12 ], [ %15, %14 ]
  store ptr %17, ptr %8, align 8, !tbaa !11
  store i32 %.val, ptr %3, align 8, !tbaa !10
  br label %Vec_IntGrow.exit

Vec_IntGrow.exit:                                 ; preds = %2, %16
  %18 = getelementptr i8, ptr %0, i64 108
  %.val1316 = load i32, ptr %18, align 4, !tbaa !12
  %19 = icmp sgt i32 %.val1316, 0
  br i1 %19, label %.lr.ph, label %.critedge

.lr.ph:                                           ; preds = %Vec_IntGrow.exit
  %20 = getelementptr i8, ptr %0, i64 112
  %.phi.trans.insert.i = getelementptr inbounds nuw i8, ptr %0, i64 64
  %21 = getelementptr i8, ptr %1, i64 8
  %22 = getelementptr inbounds nuw i8, ptr %1, i64 4
  br label %23

23:                                               ; preds = %.lr.ph, %Vec_IntPush.exit
  %indvars.iv = phi i64 [ 0, %.lr.ph ], [ %indvars.iv.next, %Vec_IntPush.exit ]
  %.val14 = load ptr, ptr %20, align 8, !tbaa !15
  %24 = getelementptr inbounds nuw %struct.Vec_Int_t_, ptr %.val14, i64 %indvars.iv
  %25 = getelementptr i8, ptr %24, i64 4
  %.val.i = load i32, ptr %25, align 4, !tbaa !3
  %26 = icmp sgt i32 %.val.i, 0
  br i1 %26, label %.lr.ph.i, label %Pla_CubeHashValue.exit

.lr.ph.i:                                         ; preds = %23
  %27 = getelementptr i8, ptr %24, i64 8
  %.val8.i = load ptr, ptr %27, align 8, !tbaa !11
  %wide.trip.count.i = zext nneg i32 %.val.i to i64
  br label %28

28:                                               ; preds = %28, %.lr.ph.i
  %indvars.iv.i = phi i64 [ 0, %.lr.ph.i ], [ %indvars.iv.next.i, %28 ]
  %.010.i = phi i32 [ 0, %.lr.ph.i ], [ %35, %28 ]
  %29 = getelementptr inbounds nuw i32, ptr %.val8.i, i64 %indvars.iv.i
  %30 = load i32, ptr %29, align 4, !tbaa !16
  %31 = sext i32 %30 to i64
  %32 = getelementptr inbounds [256 x i32], ptr @s_PlaHashValues, i64 0, i64 %31
  %33 = load i32, ptr %32, align 4, !tbaa !16
  %34 = and i32 %33, 67108863
  %35 = add nuw nsw i32 %34, %.010.i
  %indvars.iv.next.i = add nuw nsw i64 %indvars.iv.i, 1
  %exitcond.not.i = icmp eq i64 %indvars.iv.next.i, %wide.trip.count.i
  br i1 %exitcond.not.i, label %Pla_CubeHashValue.exit, label %28, !llvm.loop !17

Pla_CubeHashValue.exit:                           ; preds = %28, %23
  %.0.lcssa.i = phi i32 [ 0, %23 ], [ %35, %28 ]
  %36 = load i32, ptr %4, align 4, !tbaa !3
  %37 = load i32, ptr %3, align 8, !tbaa !10
  %38 = icmp eq i32 %36, %37
  br i1 %38, label %39, label %.Vec_IntGrow.exit10_crit_edge.i

.Vec_IntGrow.exit10_crit_edge.i:                  ; preds = %Pla_CubeHashValue.exit
  %.pre.i = load ptr, ptr %.phi.trans.insert.i, align 8, !tbaa !11
  br label %Vec_IntPush.exit

39:                                               ; preds = %Pla_CubeHashValue.exit
  %40 = icmp slt i32 %36, 16
  br i1 %40, label %41, label %48

41:                                               ; preds = %39
  %42 = load ptr, ptr %.phi.trans.insert.i, align 8, !tbaa !11
  %.not9.i.i = icmp eq ptr %42, null
  br i1 %.not9.i.i, label %45, label %43

43:                                               ; preds = %41
  %44 = tail call dereferenceable_or_null(64) ptr @realloc(ptr noundef nonnull %42, i64 noundef 64) #16
  br label %Vec_IntGrow.exit.i

45:                                               ; preds = %41
  %46 = tail call noalias dereferenceable_or_null(64) ptr @malloc(i64 noundef 64) #17
  br label %Vec_IntGrow.exit.i

Vec_IntGrow.exit.i:                               ; preds = %45, %43
  %47 = phi ptr [ %44, %43 ], [ %46, %45 ]
  store ptr %47, ptr %.phi.trans.insert.i, align 8, !tbaa !11
  store i32 16, ptr %3, align 8, !tbaa !10
  br label %Vec_IntPush.exit

48:                                               ; preds = %39
  %49 = shl nuw nsw i32 %36, 1
  %50 = load ptr, ptr %.phi.trans.insert.i, align 8, !tbaa !11
  %.not9.i9.i = icmp eq ptr %50, null
  %51 = zext nneg i32 %49 to i64
  %52 = shl nuw nsw i64 %51, 2
  br i1 %.not9.i9.i, label %55, label %53

53:                                               ; preds = %48
  %54 = tail call ptr @realloc(ptr noundef nonnull %50, i64 noundef %52) #16
  br label %57

55:                                               ; preds = %48
  %56 = tail call noalias ptr @malloc(i64 noundef %52) #17
  br label %57

57:                                               ; preds = %55, %53
  %58 = phi ptr [ %54, %53 ], [ %56, %55 ]
  store ptr %58, ptr %.phi.trans.insert.i, align 8, !tbaa !11
  store i32 %49, ptr %3, align 8, !tbaa !10
  br label %Vec_IntPush.exit

Vec_IntPush.exit:                                 ; preds = %.Vec_IntGrow.exit10_crit_edge.i, %Vec_IntGrow.exit.i, %57
  %59 = phi ptr [ %.pre.i, %.Vec_IntGrow.exit10_crit_edge.i ], [ %58, %57 ], [ %47, %Vec_IntGrow.exit.i ]
  %60 = load i32, ptr %4, align 4, !tbaa !3
  %61 = add nsw i32 %60, 1
  store i32 %61, ptr %4, align 4, !tbaa !3
  %62 = sext i32 %60 to i64
  %63 = getelementptr inbounds i32, ptr %59, i64 %62
  store i32 %.0.lcssa.i, ptr %63, align 4, !tbaa !16
  %.val.i15 = load i32, ptr %1, align 8, !tbaa !19
  %.val11.i = load ptr, ptr %21, align 8, !tbaa !23
  %64 = and i32 %.val.i15, %.0.lcssa.i
  %65 = sext i32 %64 to i64
  %66 = getelementptr inbounds %struct.Tab_Obj_t_, ptr %.val11.i, i64 %65
  %67 = load i32, ptr %22, align 4, !tbaa !24
  %68 = sext i32 %67 to i64
  %69 = getelementptr inbounds %struct.Tab_Obj_t_, ptr %.val11.i, i64 %68
  %70 = getelementptr inbounds nuw i8, ptr %69, i64 8
  %71 = trunc nuw nsw i64 %indvars.iv to i32
  store i32 %71, ptr %70, align 4, !tbaa !25
  %72 = getelementptr inbounds nuw i8, ptr %69, i64 12
  %73 = load i32, ptr %72, align 4
  %74 = or i32 %73, 65535
  store i32 %74, ptr %72, align 4
  %75 = load i32, ptr %66, align 4, !tbaa !27
  %76 = getelementptr inbounds nuw i8, ptr %69, i64 4
  store i32 %75, ptr %76, align 4, !tbaa !28
  %77 = load i32, ptr %22, align 4, !tbaa !24
  %78 = add nsw i32 %77, 1
  store i32 %78, ptr %22, align 4, !tbaa !24
  store i32 %77, ptr %66, align 4, !tbaa !27
  %indvars.iv.next = add nuw nsw i64 %indvars.iv, 1
  %.val13 = load i32, ptr %18, align 4, !tbaa !12
  %79 = sext i32 %.val13 to i64
  %80 = icmp slt i64 %indvars.iv.next, %79
  br i1 %80, label %23, label %.critedge, !llvm.loop !29

.critedge:                                        ; preds = %Vec_IntPush.exit, %Vec_IntGrow.exit
  ret void
}